target datalayout = "e-m:e-p270:32:32-p271:32:32-p272:64:64-i64:64-i128:128-f80:128-n8:16:32:64-S128"
target triple = "x86_64-pc-linux-gnu"

%struct._GdkRGBA = type { double, double, double, double }
%struct.darktable_t = type { %struct.dt_codepath_t, i32, i32, ptr, ptr, ptr, ptr, ptr, ptr, ptr, ptr, ptr, ptr, ptr, ptr, ptr, ptr, ptr, ptr, ptr, ptr, ptr, ptr, ptr, ptr, ptr, ptr, ptr, ptr, ptr, [64 x %struct.dt_pthread_mutex_t], %struct.dt_pthread_mutex_t, %struct.dt_pthread_mutex_t, %struct.dt_pthread_mutex_t, %struct.dt_pthread_mutex_t, %struct.dt_pthread_mutex_t, ptr, ptr, ptr, ptr, ptr, ptr, ptr, ptr, ptr, ptr, ptr, ptr, ptr, %struct.dt_lua_state_t, ptr, double, ptr, i32, [47 x i32], i32, i32, ptr, ptr, %struct.dt_sys_resources_t, %struct.dt_backthumb_t, %struct.dt_gimp_t }
%struct.dt_codepath_t = type { i8, [3 x i8] }
%struct.dt_pthread_mutex_t = type { %union.pthread_mutex_t }
%union.pthread_mutex_t = type { %struct.__pthread_mutex_s }
%struct.__pthread_mutex_s = type { i32, i32, i32, i32, i32, i16, i16, %struct.__pthread_internal_list }
%struct.__pthread_internal_list = type { ptr, ptr }
%struct.dt_lua_state_t = type { i32 }
%struct.dt_sys_resources_t = type { i64, i64, ptr, ptr, i32 }
%struct.dt_backthumb_t = type { double, double, i32, i32, i32, i32 }
%struct.dt_gimp_t = type { i32, ptr, ptr, i32, i32 }
%struct.dt_iop_module_t = type { i32, ptr, ptr, ptr, ptr, ptr, ptr, ptr, ptr, ptr, ptr, ptr, ptr, ptr, ptr, ptr, ptr, ptr, ptr, ptr, ptr, ptr, ptr, ptr, ptr, ptr, ptr, ptr, ptr, ptr, ptr, ptr, ptr, ptr, ptr, ptr, ptr, ptr, ptr, ptr, ptr, ptr, ptr, ptr, ptr, ptr, ptr, ptr, ptr, ptr, ptr, ptr, ptr, ptr, ptr, ptr, ptr, [20 x i8], i32, i32, i32, i32, i32, i32, i32, [8 x i8], [4 x float], [4 x float], [4 x float], [4 x float], [4 x float], [4 x float], ptr, %struct.dt_dev_histogram_stats_t, [4 x i32], i32, i32, ptr, i32, i32, ptr, ptr, i32, ptr, %struct.dt_pthread_mutex_t, ptr, ptr, ptr, ptr, %struct.anon, ptr, ptr, ptr, ptr, ptr, ptr, ptr, i32, ptr, ptr, ptr, ptr, ptr, ptr, ptr, i32, ptr, i32, [128 x i8], i32, ptr, ptr, i32, [12 x i8] }
%struct.dt_dev_histogram_stats_t = type { i32, i64, i32, i32 }
%struct.anon = type { %struct.anon.0, %struct.anon.1 }
%struct.anon.0 = type { ptr, ptr }
%struct.anon.1 = type { ptr, i32 }
%struct.dt_iop_gui_blend_data_t = type { i32, i32, i32, i32, i32, i32, i32, ptr, ptr, ptr, ptr, ptr, ptr, ptr, ptr, ptr, ptr, ptr, ptr, ptr, [2 x %struct.dt_iop_gui_blendif_filter_t], ptr, ptr, ptr, ptr, ptr, ptr, ptr, ptr, ptr, ptr, ptr, ptr, i32, i32, ptr, i32, [8 x [2 x i32]], i32, i32, ptr, i32, ptr, ptr, ptr, [5 x ptr], [5 x i32], ptr, ptr, ptr, i32, ptr, ptr, i32, %struct.dt_pthread_mutex_t }
%struct.dt_iop_gui_blendif_filter_t = type { ptr, ptr, [4 x ptr], ptr, ptr, ptr }
%struct.dt_gui_gtk_t = type { ptr, %struct.dt_gui_widgets_t, %struct.dt_gui_scrollbars_t, i32, ptr, i32, [39 x %struct._GdkRGBA], i32, i32, i32, i32, i32, double, double, double, double, ptr, double, double, double, double, i32, i32, [4096 x i8], i32, i32, i32, %struct.dt_pthread_mutex_t }
%struct.dt_gui_widgets_t = type { ptr, ptr, ptr, ptr, i32, i32, i32 }
%struct.dt_gui_scrollbars_t = type { ptr, ptr, i32 }

@darktable = external global %struct.darktable_t, align 8

; Function Attrs: nounwind uwtable
define internal i32 @_blendop_blendif_get_picker_colorspace(ptr noundef %0) #0 {
  %2 = alloca ptr, align 8
  %3 = alloca i32, align 4
  store ptr %0, ptr %2, align 8, !tbaa !31
  call void @llvm.lifetime.start.p0(i64 4, ptr %3) #11
  store i32 -1, ptr %3, align 4, !tbaa !80
  %4 = load ptr, ptr %2, align 8, !tbaa !31
  %5 = getelementptr inbounds nuw %struct.dt_iop_gui_blend_data_t, ptr %4, i32 0, i32 34
  %6 = load i32, ptr %5, align 4, !tbaa !91
  %7 = icmp eq i32 %6, 3
  br i1 %7, label %8, label %16

8:                                                ; preds = %1
  %9 = load ptr, ptr %2, align 8, !tbaa !31
  %10 = getelementptr inbounds nuw %struct.dt_iop_gui_blend_data_t, ptr %9, i32 0, i32 36
  %11 = load i32, ptr %10, align 8, !tbaa !79
  %12 = icmp slt i32 %11, 4
  br i1 %12, label %13, label %14

13:                                               ; preds = %8
  store i32 2, ptr %3, align 4, !tbaa !80
  br label %15

14:                                               ; preds = %8
  store i32 4, ptr %3, align 4, !tbaa !80
  br label %15

15:                                               ; preds = %14, %13
  br label %44

16:                                               ; preds = %1
  %17 = load ptr, ptr %2, align 8, !tbaa !31
  %18 = getelementptr inbounds nuw %struct.dt_iop_gui_blend_data_t, ptr %17, i32 0, i32 34
  %19 = load i32, ptr %18, align 4, !tbaa !91
  %20 = icmp eq i32 %19, 4
  br i1 %20, label %21, label %29

21:                                               ; preds = %16
  %22 = load ptr, ptr %2, align 8, !tbaa !31
  %23 = getelementptr inbounds nuw %struct.dt_iop_gui_blend_data_t, ptr %22, i32 0, i32 36
  %24 = load i32, ptr %23, align 8, !tbaa !79
  %25 = icmp slt i32 %24, 4
  br i1 %25, label %26, label %27

26:                                               ; preds = %21
  store i32 2, ptr %3, align 4, !tbaa !80
  br label %28

27:                                               ; preds = %21
  store i32 5, ptr %3, align 4, !tbaa !80
  br label %28

28:                                               ; preds = %27, %26
  br label %43

29:                                               ; preds = %16
  %30 = load ptr, ptr %2, align 8, !tbaa !31
  %31 = getelementptr inbounds nuw %struct.dt_iop_gui_blend_data_t, ptr %30, i32 0, i32 34
  %32 = load i32, ptr %31, align 4, !tbaa !91
  %33 = icmp eq i32 %32, 2
  br i1 %33, label %34, label %42

34:                                               ; preds = %29
  %35 = load ptr, ptr %2, align 8, !tbaa !31
  %36 = getelementptr inbounds nuw %struct.dt_iop_gui_blend_data_t, ptr %35, i32 0, i32 36
  %37 = load i32, ptr %36, align 8, !tbaa !79
  %38 = icmp slt i32 %37, 3
  br i1 %38, label %39, label %40

39:                                               ; preds = %34
  store i32 1, ptr %3, align 4, !tbaa !80
  br label %41

40:                                               ; preds = %34
  store i32 3, ptr %3, align 4, !tbaa !80
  br label %41

41:                                               ; preds = %40, %39
  br label %42

42:                                               ; preds = %41, %29
  br label %43

43:                                               ; preds = %42, %28
  br label %44

44:                                               ; preds = %43, %15
  %45 = load i32, ptr %3, align 4, !tbaa !80
  call void @llvm.lifetime.end.p0(i64 4, ptr %3) #11
  ret i32 %45
}

; Function Attrs: nounwind uwtable
define internal void @_blendop_blendif_tab_switch(ptr noundef %0, ptr noundef %1, i32 noundef %2, ptr noundef %3) #0 {
  %5 = alloca ptr, align 8
  %6 = alloca ptr, align 8
  %7 = alloca i32, align 4
  %8 = alloca ptr, align 8
  %9 = alloca i32, align 4
  store ptr %0, ptr %5, align 8, !tbaa !189
  store ptr %1, ptr %6, align 8, !tbaa !11
  store i32 %2, ptr %7, align 4, !tbaa !80
  store ptr %3, ptr %8, align 8, !tbaa !31
  %10 = load ptr, ptr getelementptr inbounds nuw (%struct.darktable_t, ptr @darktable, i32 0, i32 14), align 8, !tbaa !39
  %11 = getelementptr inbounds nuw %struct.dt_gui_gtk_t, ptr %10, i32 0, i32 5
  %12 = load i32, ptr %11, align 8, !tbaa !72
  %13 = icmp ne i32 %12, 0
  br i1 %13, label %22, label %14

14:                                               ; preds = %4
  %15 = load ptr, ptr %8, align 8, !tbaa !31
  %16 = icmp ne ptr %15, null
  br i1 %16, label %17, label %22

17:                                               ; preds = %14
  %18 = load ptr, ptr %8, align 8, !tbaa !31
  %19 = getelementptr inbounds nuw %struct.dt_iop_gui_blend_data_t, ptr %18, i32 0, i32 2
  %20 = load i32, ptr %19, align 8, !tbaa !156
  %21 = icmp ne i32 %20, 0
  br i1 %21, label %23, label %22

22:                                               ; preds = %17, %14, %4
  br label %70

23:                                               ; preds = %17
  call void @llvm.lifetime.start.p0(i64 4, ptr %9) #11
  %24 = load ptr, ptr %8, align 8, !tbaa !31
  %25 = call i32 @_blendop_blendif_get_picker_colorspace(ptr noundef %24)
  store i32 %25, ptr %9, align 4, !tbaa !80
  %26 = load ptr, ptr %8, align 8, !tbaa !31
  %27 = getelementptr inbounds nuw %struct.dt_iop_gui_blend_data_t, ptr %26, i32 0, i32 7
  %28 = load ptr, ptr %27, align 8, !tbaa !134
  call void @dt_iop_color_picker_reset(ptr noundef %28, i32 noundef 0)
  %29 = load i32, ptr %7, align 4, !tbaa !80
  %30 = load ptr, ptr %8, align 8, !tbaa !31
  %31 = getelementptr inbounds nuw %struct.dt_iop_gui_blend_data_t, ptr %30, i32 0, i32 36
  store i32 %29, ptr %31, align 8, !tbaa !79
  %32 = load i32, ptr %9, align 4, !tbaa !80
  %33 = load ptr, ptr %8, align 8, !tbaa !31
  %34 = call i32 @_blendop_blendif_get_picker_colorspace(ptr noundef %33)
  %35 = icmp ne i32 %32, %34
  br i1 %35, label %36, label %63

36:                                               ; preds = %23
  %37 = load ptr, ptr %8, align 8, !tbaa !31
  %38 = getelementptr inbounds nuw %struct.dt_iop_gui_blend_data_t, ptr %37, i32 0, i32 18
  %39 = load ptr, ptr %38, align 8, !tbaa !133
  %40 = call i64 @gtk_toggle_button_get_type() #12
  %41 = call ptr @g_type_check_instance_cast(ptr noundef %39, i64 noundef %40)
  %42 = call i32 @gtk_toggle_button_get_active(ptr noundef %41)
  %43 = icmp ne i32 %42, 0
  br i1 %43, label %52, label %44

44:                                               ; preds = %36
  %45 = load ptr, ptr %8, align 8, !tbaa !31
  %46 = getelementptr inbounds nuw %struct.dt_iop_gui_blend_data_t, ptr %45, i32 0, i32 19
  %47 = load ptr, ptr %46, align 8, !tbaa !33
  %48 = call i64 @gtk_toggle_button_get_type() #12
  %49 = call ptr @g_type_check_instance_cast(ptr noundef %47, i64 noundef %48)
  %50 = call i32 @gtk_toggle_button_get_active(ptr noundef %49)
  %51 = icmp ne i32 %50, 0
  br i1 %51, label %52, label %63

52:                                               ; preds = %44, %36
  %53 = load ptr, ptr %8, align 8, !tbaa !31
  %54 = getelementptr inbounds nuw %struct.dt_iop_gui_blend_data_t, ptr %53, i32 0, i32 7
  %55 = load ptr, ptr %54, align 8, !tbaa !134
  %56 = load ptr, ptr %8, align 8, !tbaa !31
  %57 = call i32 @_blendop_blendif_get_picker_colorspace(ptr noundef %56)
  call void @dt_iop_color_picker_set_cst(ptr noundef %55, i32 noundef %57)
  %58 = load ptr, ptr %8, align 8, !tbaa !31
  %59 = getelementptr inbounds nuw %struct.dt_iop_gui_blend_data_t, ptr %58, i32 0, i32 7
  %60 = load ptr, ptr %59, align 8, !tbaa !134
  %61 = getelementptr inbounds nuw %struct.dt_iop_module_t, ptr %60, i32 0, i32 77
  %62 = load ptr, ptr %61, align 8, !tbaa !92
  call void @dt_dev_reprocess_all(ptr noundef %62)
  call void (...) @dt_control_queue_redraw()
  br label %63

63:                                               ; preds = %52, %44, %23
  %64 = load ptr, ptr %8, align 8, !tbaa !31
  %65 = getelementptr inbounds nuw %struct.dt_iop_gui_blend_data_t, ptr %64, i32 0, i32 7
  %66 = load ptr, ptr %65, align 8, !tbaa !134
  %67 = load ptr, ptr %8, align 8, !tbaa !31
  %68 = getelementptr inbounds nuw %struct.dt_iop_gui_blend_data_t, ptr %67, i32 0, i32 36
  %69 = load i32, ptr %68, align 8, !tbaa !79
  call void @_blendop_blendif_update_tab(ptr noundef %66, i32 noundef %69)
  call void @llvm.lifetime.end.p0(i64 4, ptr %9) #11
  br label %70

70:                                               ; preds = %63, %22
  ret void
}