; Function Attrs: nounwind uwtable
define internal void @_blendop_blendif_tab_switch(ptr readnone captures(none) %0, ptr readnone captures(none) %1, i32 noundef %2, ptr noundef %3) #0 {
  %5 = load ptr, ptr getelementptr inbounds nuw (i8, ptr @darktable, i64 104), align 8, !tbaa !33
  %6 = getelementptr inbounds nuw i8, ptr %5, i64 96
  %7 = load i32, ptr %6, align 8, !tbaa !66
  %8 = icmp eq i32 %7, 0
  %9 = icmp ne ptr %3, null
  %or.cond = and i1 %9, %8
  br i1 %or.cond, label %10, label %67

10:                                               ; preds = %4
  %11 = getelementptr inbounds nuw i8, ptr %3, i64 8
  %12 = load i32, ptr %11, align 8, !tbaa !142
  %.not = icmp eq i32 %12, 0
  br i1 %.not, label %67, label %13

13:                                               ; preds = %10
  %14 = getelementptr inbounds nuw i8, ptr %3, i64 380
  %15 = load i32, ptr %14, align 4, !tbaa !78
  switch i32 %15, label %_blendop_blendif_get_picker_colorspace.exit [
    i32 3, label %16
    i32 4, label %20
    i32 2, label %24
  ]

16:                                               ; preds = %13
  %17 = getelementptr inbounds nuw i8, ptr %3, i64 392
  %18 = load i32, ptr %17, align 8, !tbaa !72
  %19 = icmp slt i32 %18, 4
  %..i = select i1 %19, i32 2, i32 4
  br label %_blendop_blendif_get_picker_colorspace.exit

20:                                               ; preds = %13
  %21 = getelementptr inbounds nuw i8, ptr %3, i64 392
  %22 = load i32, ptr %21, align 8, !tbaa !72
  %23 = icmp slt i32 %22, 4
  %.7.i = select i1 %23, i32 2, i32 5
  br label %_blendop_blendif_get_picker_colorspace.exit

24:                                               ; preds = %13
  %25 = getelementptr inbounds nuw i8, ptr %3, i64 392
  %26 = load i32, ptr %25, align 8, !tbaa !72
  %27 = icmp slt i32 %26, 3
  %.8.i = select i1 %27, i32 1, i32 3
  br label %_blendop_blendif_get_picker_colorspace.exit

_blendop_blendif_get_picker_colorspace.exit:      ; preds = %13, %16, %20, %24
  %.0.i = phi i32 [ %..i, %16 ], [ %.7.i, %20 ], [ -1, %13 ], [ %.8.i, %24 ]
  %28 = getelementptr inbounds nuw i8, ptr %3, i64 32
  %29 = load ptr, ptr %28, align 8, !tbaa !79
  tail call void @dt_iop_color_picker_reset(ptr noundef %29, i32 noundef 0) #18
  %30 = getelementptr inbounds nuw i8, ptr %3, i64 392
  store i32 %2, ptr %30, align 8, !tbaa !72
  %31 = load i32, ptr %14, align 4, !tbaa !78
  switch i32 %31, label %_blendop_blendif_get_picker_colorspace.exit22 [
    i32 3, label %32
    i32 4, label %34
    i32 2, label %36
  ]

32:                                               ; preds = %_blendop_blendif_get_picker_colorspace.exit
  %33 = icmp slt i32 %2, 4
  %..i21 = select i1 %33, i32 2, i32 4
  br label %_blendop_blendif_get_picker_colorspace.exit22

34:                                               ; preds = %_blendop_blendif_get_picker_colorspace.exit
  %35 = icmp slt i32 %2, 4
  %.7.i20 = select i1 %35, i32 2, i32 5
  br label %_blendop_blendif_get_picker_colorspace.exit22

36:                                               ; preds = %_blendop_blendif_get_picker_colorspace.exit
  %37 = icmp slt i32 %2, 3
  %.8.i18 = select i1 %37, i32 1, i32 3
  br label %_blendop_blendif_get_picker_colorspace.exit22

_blendop_blendif_get_picker_colorspace.exit22:    ; preds = %_blendop_blendif_get_picker_colorspace.exit, %32, %34, %36
  %.0.i19 = phi i32 [ %..i21, %32 ], [ %.7.i20, %34 ], [ -1, %_blendop_blendif_get_picker_colorspace.exit ], [ %.8.i18, %36 ]
  %.not15 = icmp eq i32 %.0.i, %.0.i19
  br i1 %.not15, label %64, label %38

38:                                               ; preds = %_blendop_blendif_get_picker_colorspace.exit22
  %39 = getelementptr inbounds nuw i8, ptr %3, i64 120
  %40 = load ptr, ptr %39, align 8, !tbaa !120
  %41 = tail call i64 @gtk_toggle_button_get_type() #19
  %42 = tail call ptr @g_type_check_instance_cast(ptr noundef %40, i64 noundef %41) #18
  %43 = tail call i32 @gtk_toggle_button_get_active(ptr noundef %42) #18
  %.not16 = icmp eq i32 %43, 0
  br i1 %.not16, label %44, label %49

44:                                               ; preds = %38
  %45 = getelementptr inbounds nuw i8, ptr %3, i64 128
  %46 = load ptr, ptr %45, align 8, !tbaa !27
  %47 = tail call ptr @g_type_check_instance_cast(ptr noundef %46, i64 noundef %41) #18
  %48 = tail call i32 @gtk_toggle_button_get_active(ptr noundef %47) #18
  %.not17 = icmp eq i32 %48, 0
  br i1 %.not17, label %64, label %49

49:                                               ; preds = %44, %38
  %50 = load ptr, ptr %28, align 8, !tbaa !79
  %51 = load i32, ptr %14, align 4, !tbaa !78
  switch i32 %51, label %_blendop_blendif_get_picker_colorspace.exit27 [
    i32 3, label %52
    i32 4, label %55
    i32 2, label %58
  ]

52:                                               ; preds = %49
  %53 = load i32, ptr %30, align 8, !tbaa !72
  %54 = icmp slt i32 %53, 4
  %..i26 = select i1 %54, i32 2, i32 4
  br label %_blendop_blendif_get_picker_colorspace.exit27

55:                                               ; preds = %49
  %56 = load i32, ptr %30, align 8, !tbaa !72
  %57 = icmp slt i32 %56, 4
  %.7.i25 = select i1 %57, i32 2, i32 5
  br label %_blendop_blendif_get_picker_colorspace.exit27

58:                                               ; preds = %49
  %59 = load i32, ptr %30, align 8, !tbaa !72
  %60 = icmp slt i32 %59, 3
  %.8.i23 = select i1 %60, i32 1, i32 3
  br label %_blendop_blendif_get_picker_colorspace.exit27

_blendop_blendif_get_picker_colorspace.exit27:    ; preds = %49, %52, %55, %58
  %.0.i24 = phi i32 [ %..i26, %52 ], [ %.7.i25, %55 ], [ -1, %49 ], [ %.8.i23, %58 ]
  tail call void @dt_iop_color_picker_set_cst(ptr noundef %50, i32 noundef %.0.i24) #18
  %61 = load ptr, ptr %28, align 8, !tbaa !79
  %62 = getelementptr inbounds nuw i8, ptr %61, i64 664
  %63 = load ptr, ptr %62, align 8, !tbaa !80
  tail call void @dt_dev_reprocess_all(ptr noundef %63) #18
  tail call void (...) @dt_control_queue_redraw() #18
  br label %64

64:                                               ; preds = %_blendop_blendif_get_picker_colorspace.exit27, %44, %_blendop_blendif_get_picker_colorspace.exit22
  %65 = load ptr, ptr %28, align 8, !tbaa !79
  %66 = load i32, ptr %30, align 8, !tbaa !72
  tail call fastcc void @_blendop_blendif_update_tab(ptr noundef %65, i32 noundef %66)
  br label %67

67:                                               ; preds = %4, %10, %64
  ret void
}